target datalayout = "e-m:e-p270:32:32-p271:32:32-p272:64:64-i64:64-f80:128-n8:16:32:64-S128"
target triple = "x86_64-pc-linux-gnu"

@.str = private unnamed_addr constant [3 x i8] c"%d\00", align 1
@.str.1 = private unnamed_addr constant [7 x i8] c"%c\0A%d\0A\00", align 1
@.str.2 = private unnamed_addr constant [3 x i8] c"%c\00", align 1
@.str.3 = private unnamed_addr constant [2 x i8] c"\0A\00", align 1

; Function Attrs: noinline nounwind uwtable
define dso_local void @main() #0 {
  %1 = alloca i32, align 4
  %2 = alloca i32, align 4
  %3 = alloca i32, align 4
  %4 = alloca i32, align 4
  %5 = alloca [26 x i32], align 16
  %6 = alloca i32, align 4
  %7 = alloca [1000 x i32], align 16
  %8 = alloca i32, align 4
  %9 = alloca [1000 x [30 x i8]], align 16
  store i32 0, i32* %4, align 4
  %10 = bitcast [26 x i32]* %5 to i8*
  call void @llvm.memset.p0i8.i64(i8* align 16 %10, i8 0, i64 104, i1 false)
  store i32 0, i32* %8, align 4
  %11 = call i32 (i8*, ...) @__isoc99_scanf(i8* getelementptr inbounds ([3 x i8], [3 x i8]* @.str, i64 0, i64 0), i32* %1)
  store i32 -1, i32* %2, align 4
  br label %12

12:                                               ; preds = %22, %0
  %13 = load i32, i32* %2, align 4
  %14 = load i32, i32* %1, align 4
  %15 = icmp slt i32 %13, %14
  br i1 %15, label %16, label %25

16:                                               ; preds = %12
  %17 = load i32, i32* %2, align 4
  %18 = sext i32 %17 to i64
  %19 = getelementptr inbounds [1000 x [30 x i8]], [1000 x [30 x i8]]* %9, i64 0, i64 %18
  %20 = getelementptr inbounds [30 x i8], [30 x i8]* %19, i64 0, i64 0
  %21 = call i32 (i8*, ...) bitcast (i32 (...)* @gets to i32 (i8*, ...)*)(i8* %20)
  br label %22

22:                                               ; preds = %16
  %23 = load i32, i32* %2, align 4
  %24 = add nsw i32 %23, 1
  store i32 %24, i32* %2, align 4
  br label %12

25:                                               ; preds = %12
  store i32 0, i32* %3, align 4
  br label %26

26:                                               ; preds = %74, %25
  %27 = load i32, i32* %3, align 4
  %28 = icmp slt i32 %27, 26
  br i1 %28, label %29, label %77

29:                                               ; preds = %26
  store i32 0, i32* %2, align 4
  br label %30

30:                                               ; preds = %70, %29
  %31 = load i32, i32* %2, align 4
  %32 = load i32, i32* %1, align 4
  %33 = icmp slt i32 %31, %32
  br i1 %33, label %34, label %73

34:                                               ; preds = %30
  br label %35

35:                                               ; preds = %66, %34
  %36 = load i32, i32* %2, align 4
  %37 = sext i32 %36 to i64
  %38 = getelementptr inbounds [1000 x [30 x i8]], [1000 x [30 x i8]]* %9, i64 0, i64 %37
  %39 = load i32, i32* %4, align 4
  %40 = sext i32 %39 to i64
  %41 = getelementptr inbounds [30 x i8], [30 x i8]* %38, i64 0, i64 %40
  %42 = load i8, i8* %41, align 1
  %43 = sext i8 %42 to i32
  %44 = icmp ne i32 %43, 0
  br i1 %44, label %45, label %69

45:                                               ; preds = %35
  %46 = load i32, i32* %2, align 4
  %47 = sext i32 %46 to i64
  %48 = getelementptr inbounds [1000 x [30 x i8]], [1000 x [30 x i8]]* %9, i64 0, i64 %47
  %49 = load i32, i32* %4, align 4
  %50 = sext i32 %49 to i64
  %51 = getelementptr inbounds [30 x i8], [30 x i8]* %48, i64 0, i64 %50
  %52 = load i8, i8* %51, align 1
  %53 = sext i8 %52 to i32
  %54 = load i32, i32* %3, align 4
  %55 = add nsw i32 65, %54
  %56 = icmp eq i32 %53, %55
  br i1 %56, label %57, label %66

57:                                               ; preds = %45
  %58 = load i32, i32* %3, align 4
  %59 = sext i32 %58 to i64
  %60 = getelementptr inbounds [26 x i32], [26 x i32]* %5, i64 0, i64 %59
  %61 = load i32, i32* %60, align 4
  %62 = add nsw i32 %61, 1
  %63 = load i32, i32* %3, align 4
  %64 = sext i32 %63 to i64
  %65 = getelementptr inbounds [26 x i32], [26 x i32]* %5, i64 0, i64 %64
  store i32 %62, i32* %65, align 4
  br label %66

66:                                               ; preds = %57, %45
  %67 = load i32, i32* %4, align 4
  %68 = add nsw i32 %67, 1
  store i32 %68, i32* %4, align 4
  br label %35

69:                                               ; preds = %35
  store i32 0, i32* %4, align 4
  br label %70

70:                                               ; preds = %69
  %71 = load i32, i32* %2, align 4
  %72 = add nsw i32 %71, 1
  store i32 %72, i32* %2, align 4
  br label %30

73:                                               ; preds = %30
  br label %74

74:                                               ; preds = %73
  %75 = load i32, i32* %3, align 4
  %76 = add nsw i32 %75, 1
  store i32 %76, i32* %3, align 4
  br label %26

77:                                               ; preds = %26
  store i32 0, i32* %4, align 4
  %78 = getelementptr inbounds [26 x i32], [26 x i32]* %5, i64 0, i64 0
  %79 = load i32, i32* %78, align 16
  store i32 %79, i32* %6, align 4
  store i32 0, i32* %3, align 4
  store i32 1, i32* %2, align 4
  br label %80

80:                                               ; preds = %97, %77
  %81 = load i32, i32* %2, align 4
  %82 = icmp slt i32 %81, 26
  br i1 %82, label %83, label %100

83:                                               ; preds = %80
  %84 = load i32, i32* %2, align 4
  %85 = sext i32 %84 to i64
  %86 = getelementptr inbounds [26 x i32], [26 x i32]* %5, i64 0, i64 %85
  %87 = load i32, i32* %86, align 4
  %88 = load i32, i32* %6, align 4
  %89 = icmp sgt i32 %87, %88
  br i1 %89, label %90, label %96

90:                                               ; preds = %83
  %91 = load i32, i32* %2, align 4
  %92 = sext i32 %91 to i64
  %93 = getelementptr inbounds [26 x i32], [26 x i32]* %5, i64 0, i64 %92
  %94 = load i32, i32* %93, align 4
  store i32 %94, i32* %6, align 4
  %95 = load i32, i32* %2, align 4
  store i32 %95, i32* %3, align 4
  br label %96

96:                                               ; preds = %90, %83
  br label %97

97:                                               ; preds = %96
  %98 = load i32, i32* %2, align 4
  %99 = add nsw i32 %98, 1
  store i32 %99, i32* %2, align 4
  br label %80

100:                                              ; preds = %80
  store i32 0, i32* %2, align 4
  br label %101

101:                                              ; preds = %139, %100
  %102 = load i32, i32* %2, align 4
  %103 = load i32, i32* %1, align 4
  %104 = icmp slt i32 %102, %103
  br i1 %104, label %105, label %142

105:                                              ; preds = %101
  br label %106

106:                                              ; preds = %135, %105
  %107 = load i32, i32* %2, align 4
  %108 = sext i32 %107 to i64
  %109 = getelementptr inbounds [1000 x [30 x i8]], [1000 x [30 x i8]]* %9, i64 0, i64 %108
  %110 = load i32, i32* %4, align 4
  %111 = sext i32 %110 to i64
  %112 = getelementptr inbounds [30 x i8], [30 x i8]* %109, i64 0, i64 %111
  %113 = load i8, i8* %112, align 1
  %114 = sext i8 %113 to i32
  %115 = icmp ne i32 %114, 0
  br i1 %115, label %116, label %138

116:                                              ; preds = %106
  %117 = load i32, i32* %2, align 4
  %118 = sext i32 %117 to i64
  %119 = getelementptr inbounds [1000 x [30 x i8]], [1000 x [30 x i8]]* %9, i64 0, i64 %118
  %120 = load i32, i32* %4, align 4
  %121 = sext i32 %120 to i64
  %122 = getelementptr inbounds [30 x i8], [30 x i8]* %119, i64 0, i64 %121
  %123 = load i8, i8* %122, align 1
  %124 = sext i8 %123 to i32
  %125 = load i32, i32* %3, align 4
  %126 = add nsw i32 65, %125
  %127 = icmp eq i32 %124, %126
  br i1 %127, label %128, label %135

128:                                              ; preds = %116
  %129 = load i32, i32* %2, align 4
  %130 = load i32, i32* %8, align 4
  %131 = sext i32 %130 to i64
  %132 = getelementptr inbounds [1000 x i32], [1000 x i32]* %7, i64 0, i64 %131
  store i32 %129, i32* %132, align 4
  %133 = load i32, i32* %8, align 4
  %134 = add nsw i32 %133, 1
  store i32 %134, i32* %8, align 4
  store i32 0, i32* %4, align 4
  br label %138

135:                                              ; preds = %116
  %136 = load i32, i32* %4, align 4
  %137 = add nsw i32 %136, 1
  store i32 %137, i32* %4, align 4
  br label %106

138:                                              ; preds = %128, %106
  store i32 0, i32* %4, align 4
  br label %139

139:                                              ; preds = %138
  %140 = load i32, i32* %2, align 4
  %141 = add nsw i32 %140, 1
  store i32 %141, i32* %2, align 4
  br label %101

142:                                              ; preds = %101
  %143 = load i32, i32* %3, align 4
  %144 = add nsw i32 65, %143
  %145 = load i32, i32* %6, align 4
  %146 = call i32 (i8*, ...) @printf(i8* getelementptr inbounds ([7 x i8], [7 x i8]* @.str.1, i64 0, i64 0), i32 %144, i32 %145)
  store i32 0, i32* %4, align 4
  store i32 0, i32* %2, align 4
  br label %147

147:                                              ; preds = %182, %142
  %148 = load i32, i32* %2, align 4
  %149 = load i32, i32* %8, align 4
  %150 = icmp slt i32 %148, %149
  br i1 %150, label %151, label %185

151:                                              ; preds = %147
  br label %152

152:                                              ; preds = %165, %151
  %153 = load i32, i32* %2, align 4
  %154 = sext i32 %153 to i64
  %155 = getelementptr inbounds [1000 x i32], [1000 x i32]* %7, i64 0, i64 %154
  %156 = load i32, i32* %155, align 4
  %157 = sext i32 %156 to i64
  %158 = getelementptr inbounds [1000 x [30 x i8]], [1000 x [30 x i8]]* %9, i64 0, i64 %157
  %159 = load i32, i32* %4, align 4
  %160 = sext i32 %159 to i64
  %161 = getelementptr inbounds [30 x i8], [30 x i8]* %158, i64 0, i64 %160
  %162 = load i8, i8* %161, align 1
  %163 = sext i8 %162 to i32
  %164 = icmp ne i32 %163, 32
  br i1 %164, label %165, label %180

165:                                              ; preds = %152
  %166 = load i32, i32* %2, align 4
  %167 = sext i32 %166 to i64
  %168 = getelementptr inbounds [1000 x i32], [1000 x i32]* %7, i64 0, i64 %167
  %169 = load i32, i32* %168, align 4
  %170 = sext i32 %169 to i64
  %171 = getelementptr inbounds [1000 x [30 x i8]], [1000 x [30 x i8]]* %9, i64 0, i64 %170
  %172 = load i32, i32* %4, align 4
  %173 = sext i32 %172 to i64
  %174 = getelementptr inbounds [30 x i8], [30 x i8]* %171, i64 0, i64 %173
  %175 = load i8, i8* %174, align 1
  %176 = sext i8 %175 to i32
  %177 = call i32 (i8*, ...) @printf(i8* getelementptr inbounds ([3 x i8], [3 x i8]* @.str.2, i64 0, i64 0), i32 %176)
  %178 = load i32, i32* %4, align 4
  %179 = add nsw i32 %178, 1
  store i32 %179, i32* %4, align 4
  br label %152

180:                                              ; preds = %152
  %181 = call i32 (i8*, ...) @printf(i8* getelementptr inbounds ([2 x i8], [2 x i8]* @.str.3, i64 0, i64 0))
  store i32 0, i32* %4, align 4
  br label %182

182:                                              ; preds = %180
  %183 = load i32, i32* %2, align 4
  %184 = add nsw i32 %183, 1
  store i32 %184, i32* %2, align 4
  br label %147

185:                                              ; preds = %147
  ret void
}